target datalayout = "e-m:e-p270:32:32-p271:32:32-p272:64:64-i64:64-i128:128-f80:128-n8:16:32:64-S128"
target triple = "x86_64-pc-linux-gnu"

%"class.llvm::SmallVectorBase" = type { ptr, i32, i32 }
%"class.llvm::SmallPtrSetImplBase.base" = type <{ ptr, ptr, i32, i32, i32 }>
%"struct.llvm::IRPosition" = type { %"class.llvm::PointerIntPair", ptr }
%"class.llvm::PointerIntPair" = type { %"struct.llvm::detail::PunnedPointer" }
%"struct.llvm::detail::PunnedPointer" = type { [8 x i8] }
%"class.std::__cxx11::basic_string" = type { %"struct.std::__cxx11::basic_string<char>::_Alloc_hider", i64, %union.anon }
%"struct.std::__cxx11::basic_string<char>::_Alloc_hider" = type { ptr }
%union.anon = type { i64, [8 x i8] }
%"struct.llvm::AADepGraphNode" = type { ptr, %"class.llvm::SmallSetVector" }
%"class.llvm::SmallSetVector" = type { %"class.llvm::SetVector" }
%"class.llvm::SetVector" = type { %"class.llvm::DenseSet", %"class.llvm::SmallVector.39" }
%"class.llvm::DenseSet" = type { %"class.llvm::detail::DenseSetImpl" }
%"class.llvm::detail::DenseSetImpl" = type { %"class.llvm::DenseMap.36" }
%"class.llvm::DenseMap.36" = type <{ ptr, i32, i32, i32, [4 x i8] }>
%"class.llvm::SmallVector.39" = type { %"class.llvm::SmallVectorImpl.40", %"struct.llvm::SmallVectorStorage.43" }
%"class.llvm::SmallVectorImpl.40" = type { %"class.llvm::SmallVectorTemplateBase.41" }
%"class.llvm::SmallVectorTemplateBase.41" = type { %"class.llvm::SmallVectorTemplateCommon.42" }
%"class.llvm::SmallVectorTemplateCommon.42" = type { %"class.llvm::SmallVectorBase" }
%"struct.llvm::SmallVectorStorage.43" = type { [16 x i8] }
%"struct.llvm::StateWrapper.base" = type <{ %"struct.llvm::AbstractAttribute", %"struct.llvm::BooleanState.base" }>
%"struct.llvm::AbstractAttribute" = type { %"struct.llvm::AADepGraphNode", %"struct.llvm::IRPosition" }
%"struct.llvm::BooleanState.base" = type { %"struct.llvm::IntegerStateBase.base" }
%"struct.llvm::IntegerStateBase.base" = type <{ %"struct.llvm::AbstractState", i8, i8 }>
%"struct.llvm::AbstractState" = type { ptr }
%"class.llvm::SmallPtrSetImpl.base.143" = type { %"class.llvm::SmallPtrSetImplBase.base" }
%"class.llvm::DenseSet.155" = type { %"class.llvm::detail::DenseSetImpl.156" }
%"class.llvm::detail::DenseSetImpl.156" = type { %"class.llvm::DenseMap.157" }
%"class.llvm::DenseMap.157" = type <{ ptr, i32, i32, i32, [4 x i8] }>
%"class.llvm::SmallVectorImpl.161" = type { %"class.llvm::SmallVectorTemplateBase.162" }
%"class.llvm::SmallVectorTemplateBase.162" = type { %"class.llvm::SmallVectorTemplateCommon.163" }
%"class.llvm::SmallVectorTemplateCommon.163" = type { %"class.llvm::SmallVectorBase" }
%"struct.(anonymous namespace)::AAHeapToSharedFunction" = type <{ %"struct.(anonymous namespace)::AAHeapToShared.base", [6 x i8], %"class.llvm::SmallSetVector.847", %"class.llvm::SmallPtrSet.851", i32, [4 x i8] }>
%"struct.(anonymous namespace)::AAHeapToShared.base" = type { %"struct.llvm::StateWrapper.base" }
%"class.llvm::SmallSetVector.847" = type { %"class.llvm::SetVector.848" }
%"class.llvm::SetVector.848" = type { %"class.llvm::DenseSet.155", %"class.llvm::SmallVector.849" }
%"class.llvm::SmallVector.849" = type { %"class.llvm::SmallVectorImpl.161", %"struct.llvm::SmallVectorStorage.850" }
%"struct.llvm::SmallVectorStorage.850" = type { [32 x i8] }
%"class.llvm::SmallPtrSet.851" = type { %"class.llvm::SmallPtrSetImpl.base.143", [4 x ptr] }

@.str.318 = private unnamed_addr constant [18 x i8] c"[AAHeapToShared] \00", align 1
@.str.319 = private unnamed_addr constant [24 x i8] c" malloc calls eligible.\00", align 1

; Function Attrs: mustprogress nounwind uwtable
define linkonce_odr void @_ZStplIcSt11char_traitsIcESaIcEENSt7__cxx1112basic_stringIT_T0_T1_EEOS8_PKS5_(ptr dead_on_unwind noalias writable sret(%"class.std::__cxx11::basic_string") align 8 %0, ptr noundef nonnull align 8 dereferenceable(32) %1, ptr noundef %2) #1 comdat {
  %4 = alloca ptr, align 8
  %5 = alloca ptr, align 8
  %6 = alloca ptr, align 8
  store ptr %0, ptr %4, align 8
  store ptr %1, ptr %5, align 8
  store ptr %2, ptr %6, align 8
  %7 = load ptr, ptr %5, align 8
  %8 = load ptr, ptr %6, align 8
  %9 = call noundef nonnull align 8 dereferenceable(32) ptr @_ZNSt7__cxx1112basic_stringIcSt11char_traitsIcESaIcEE6appendEPKc(ptr noundef nonnull align 8 dereferenceable(32) %7, ptr noundef %8)
  call void @_ZNSt7__cxx1112basic_stringIcSt11char_traitsIcESaIcEEC1EOS4_(ptr noundef nonnull align 8 dereferenceable(32) %0, ptr noundef nonnull align 8 dereferenceable(32) %9) #2
  ret void
}

; Function Attrs: mustprogress nounwind uwtable
define linkonce_odr void @_ZStplIcSt11char_traitsIcESaIcEENSt7__cxx1112basic_stringIT_T0_T1_EEPKS5_OS8_(ptr dead_on_unwind noalias writable sret(%"class.std::__cxx11::basic_string") align 8 %0, ptr noundef %1, ptr noundef nonnull align 8 dereferenceable(32) %2) #1 comdat {
  %4 = alloca ptr, align 8
  %5 = alloca ptr, align 8
  %6 = alloca ptr, align 8
  store ptr %0, ptr %4, align 8
  store ptr %1, ptr %5, align 8
  store ptr %2, ptr %6, align 8
  %7 = load ptr, ptr %6, align 8
  %8 = load ptr, ptr %5, align 8
  %9 = call noundef nonnull align 8 dereferenceable(32) ptr @_ZNSt7__cxx1112basic_stringIcSt11char_traitsIcESaIcEE6insertEmPKc(ptr noundef nonnull align 8 dereferenceable(32) %7, i64 noundef 0, ptr noundef %8)
  call void @_ZNSt7__cxx1112basic_stringIcSt11char_traitsIcESaIcEEC1EOS4_(ptr noundef nonnull align 8 dereferenceable(32) %0, ptr noundef nonnull align 8 dereferenceable(32) %9) #2
  ret void
}

; Function Attrs: mustprogress nounwind uwtable
define linkonce_odr hidden noundef i64 @_ZNK4llvm9SetVectorIPNS_8CallBaseENS_11SmallVectorIS2_Lj4EEENS_8DenseSetIS2_NS_12DenseMapInfoIS2_vEEEELj4EE4sizeEv(ptr noundef nonnull align 8 dereferenceable(72) %0) #1 comdat align 2 {
  %2 = alloca ptr, align 8
  store ptr %0, ptr %2, align 8
  %3 = load ptr, ptr %2, align 8
  %4 = getelementptr inbounds nuw %"class.llvm::SetVector.848", ptr %3, i32 0, i32 1
  %5 = call noundef i64 @_ZNK4llvm15SmallVectorBaseIjE4sizeEv(ptr noundef nonnull align 8 dereferenceable(16) %4)
  ret i64 %5
}

; Function Attrs: mustprogress nounwind uwtable
define internal void @_ZNK12_GLOBAL__N_122AAHeapToSharedFunction8getAsStrB5cxx11EPN4llvm10AttributorE(ptr dead_on_unwind noalias writable sret(%"class.std::__cxx11::basic_string") align 8 %0, ptr noundef nonnull align 8 dereferenceable(236) %1, ptr noundef %2) unnamed_addr #1 align 2 {
  %4 = alloca ptr, align 8
  %5 = alloca ptr, align 8
  %6 = alloca ptr, align 8
  %7 = alloca %"class.std::__cxx11::basic_string", align 8
  %8 = alloca %"class.std::__cxx11::basic_string", align 8
  store ptr %0, ptr %4, align 8
  store ptr %1, ptr %5, align 8
  store ptr %2, ptr %6, align 8
  %9 = load ptr, ptr %5, align 8
  %10 = getelementptr inbounds nuw %"struct.(anonymous namespace)::AAHeapToSharedFunction", ptr %9, i32 0, i32 2
  %11 = call noundef i64 @_ZNK4llvm9SetVectorIPNS_8CallBaseENS_11SmallVectorIS2_Lj4EEENS_8DenseSetIS2_NS_12DenseMapInfoIS2_vEEEELj4EE4sizeEv(ptr noundef nonnull align 8 dereferenceable(72) %10)
  call void @_ZNSt7__cxx119to_stringEm(ptr dead_on_unwind writable sret(%"class.std::__cxx11::basic_string") align 8 %8, i64 noundef %11)
  call void @_ZStplIcSt11char_traitsIcESaIcEENSt7__cxx1112basic_stringIT_T0_T1_EEPKS5_OS8_(ptr dead_on_unwind writable sret(%"class.std::__cxx11::basic_string") align 8 %7, ptr noundef @.str.318, ptr noundef nonnull align 8 dereferenceable(32) %8)
  call void @_ZStplIcSt11char_traitsIcESaIcEENSt7__cxx1112basic_stringIT_T0_T1_EEOS8_PKS5_(ptr dead_on_unwind writable sret(%"class.std::__cxx11::basic_string") align 8 %0, ptr noundef nonnull align 8 dereferenceable(32) %7, ptr noundef @.str.319)
  call void @_ZNSt7__cxx1112basic_stringIcSt11char_traitsIcESaIcEED1Ev(ptr noundef nonnull align 8 dereferenceable(32) %7) #2
  call void @_ZNSt7__cxx1112basic_stringIcSt11char_traitsIcESaIcEED1Ev(ptr noundef nonnull align 8 dereferenceable(32) %8) #2
  ret void
}